target datalayout = "e-m:e-p270:32:32-p271:32:32-p272:64:64-i64:64-i128:128-f80:128-n8:16:32:64-S128"
target triple = "x86_64-pc-linux-gnu"

%class.WirelessFrame = type { %class.QFrame, ptr, ptr, i8, i32 }
%class.QFrame = type { %class.QWidget }
%class.QWidget = type { %class.QObject, %class.QPaintDevice.base, ptr }
%class.QObject = type { ptr, %class.QScopedPointer }
%class.QScopedPointer = type { ptr }
%class.QPaintDevice.base = type <{ ptr, i16 }>
%class.QTimerEvent = type <{ %class.QEvent, i32, [4 x i8] }>
%class.QEvent = type { ptr, i16, i8, i8, i8, i8, i16 }

; Function Attrs: mustprogress nounwind uwtable
define linkonce_odr noundef i32 @_ZNK11QTimerEvent7timerIdEv(ptr noundef nonnull align 8 dereferenceable(20) %0) #1 comdat align 2 {
  %2 = alloca ptr, align 8
  store ptr %0, ptr %2, align 8
  %3 = load ptr, ptr %2, align 8
  %4 = getelementptr inbounds %class.QTimerEvent, ptr %3, i32 0, i32 1
  %5 = load i32, ptr %4, align 8
  ret i32 %5
}

; Function Attrs: mustprogress uwtable
define void @_ZN13WirelessFrame10timerEventEP11QTimerEvent(ptr noundef nonnull align 8 dereferenceable(64) %0, ptr noundef %1) unnamed_addr #0 align 2 {
  %3 = alloca ptr, align 8
  %4 = alloca ptr, align 8
  store ptr %0, ptr %3, align 8
  store ptr %1, ptr %4, align 8
  %5 = load ptr, ptr %3, align 8
  %6 = load ptr, ptr %4, align 8
  %7 = call noundef i32 @_ZNK11QTimerEvent7timerIdEv(ptr noundef nonnull align 8 dereferenceable(20) %6)
  %8 = getelementptr inbounds %class.WirelessFrame, ptr %5, i32 0, i32 4
  %9 = load i32, ptr %8, align 4
  %10 = icmp ne i32 %7, %9
  br i1 %10, label %11, label %13

11:                                               ; preds = %2
  %12 = load ptr, ptr %4, align 8
  call void @_ZN7QObject10timerEventEP11QTimerEvent(ptr noundef nonnull align 8 dereferenceable(16) %5, ptr noundef %12)
  br label %17

13:                                               ; preds = %2
  %14 = getelementptr inbounds %class.WirelessFrame, ptr %5, i32 0, i32 4
  %15 = load i32, ptr %14, align 4
  call void @_ZN7QObject9killTimerEi(ptr noundef nonnull align 8 dereferenceable(16) %5, i32 noundef %15)
  %16 = getelementptr inbounds %class.WirelessFrame, ptr %5, i32 0, i32 4
  store i32 -1, ptr %16, align 4
  call void @_ZN13WirelessFrame19updateInterfaceListEv(ptr noundef nonnull align 8 dereferenceable(64) %5)
  br label %17

17:                                               ; preds = %13, %11
  ret void
}