; Function Attrs: mustprogress uwtable
define void @_ZN13WirelessFrame10timerEventEP11QTimerEvent(ptr noundef nonnull align 8 dereferenceable(64) %0, ptr noundef %1) unnamed_addr #0 align 2 {
  %3 = getelementptr inbounds i8, ptr %1, i64 16
  %4 = load i32, ptr %3, align 8
  %5 = getelementptr inbounds i8, ptr %0, i64 60
  %6 = load i32, ptr %5, align 4
  %.not = icmp eq i32 %4, %6
  br i1 %.not, label %8, label %7

7:                                                ; preds = %2
  tail call void @_ZN7QObject10timerEventEP11QTimerEvent(ptr noundef nonnull align 8 dereferenceable(16) %0, ptr noundef nonnull %1)
  br label %9

8:                                                ; preds = %2
  tail call void @_ZN7QObject9killTimerEi(ptr noundef nonnull align 8 dereferenceable(16) %0, i32 noundef %4)
  store i32 -1, ptr %5, align 4
  tail call void @_ZN13WirelessFrame19updateInterfaceListEv(ptr noundef nonnull align 8 dereferenceable(64) %0)
  br label %9

9:                                                ; preds = %8, %7
  ret void
}